target datalayout = "e-m:e-p270:32:32-p271:32:32-p272:64:64-i64:64-i128:128-f80:128-n8:16:32:64-S128"
target triple = "x86_64-pc-linux-gnu"

%"struct.duckdb_libpgquery::PGValue" = type { i32, %"union.duckdb_libpgquery::PGValue::ValUnion" }
%"union.duckdb_libpgquery::PGValue::ValUnion" = type { i64 }
%"struct.duckdb_libpgquery::PGAConst" = type { i32, %"struct.duckdb_libpgquery::PGValue", i32 }
%"struct.duckdb_libpgquery::PGTypeCast" = type { i32, ptr, ptr, i32, i32 }

@.str.62 = private unnamed_addr constant [5 x i8] c"bool\00", align 1
@.str.172 = private unnamed_addr constant [2 x i8] c"t\00", align 1
@.str.173 = private unnamed_addr constant [2 x i8] c"f\00", align 1

; Function Attrs: mustprogress uwtable
define internal noundef ptr @_ZN17duckdb_libpgqueryL12makeTypeCastEPNS_6PGNodeEPNS_10PGTypeNameEii(ptr noundef %0, ptr noundef %1, i32 noundef %2, i32 noundef %3) #0 {
  %5 = alloca ptr, align 8
  %6 = alloca ptr, align 8
  %7 = alloca i32, align 4
  %8 = alloca i32, align 4
  %9 = alloca ptr, align 8
  store ptr %0, ptr %5, align 8, !tbaa !408
  store ptr %1, ptr %6, align 8, !tbaa !582
  store i32 %2, ptr %7, align 4, !tbaa !7
  store i32 %3, ptr %8, align 4, !tbaa !7
  call void @llvm.lifetime.start.p0(i64 8, ptr %9) #13
  %10 = call noundef ptr @_ZN17duckdb_libpgquery7newNodeEmNS_9PGNodeTagE(i64 noundef 32, i32 noundef 363)
  store ptr %10, ptr %9, align 8, !tbaa !783
  %11 = load ptr, ptr %5, align 8, !tbaa !408
  %12 = load ptr, ptr %9, align 8, !tbaa !783
  %13 = getelementptr inbounds nuw %"struct.duckdb_libpgquery::PGTypeCast", ptr %12, i32 0, i32 1
  store ptr %11, ptr %13, align 8, !tbaa !785
  %14 = load ptr, ptr %6, align 8, !tbaa !582
  %15 = load ptr, ptr %9, align 8, !tbaa !783
  %16 = getelementptr inbounds nuw %"struct.duckdb_libpgquery::PGTypeCast", ptr %15, i32 0, i32 2
  store ptr %14, ptr %16, align 8, !tbaa !787
  %17 = load i32, ptr %7, align 4, !tbaa !7
  %18 = load ptr, ptr %9, align 8, !tbaa !783
  %19 = getelementptr inbounds nuw %"struct.duckdb_libpgquery::PGTypeCast", ptr %18, i32 0, i32 3
  store i32 %17, ptr %19, align 8, !tbaa !788
  %20 = load i32, ptr %8, align 4, !tbaa !7
  %21 = load ptr, ptr %9, align 8, !tbaa !783
  %22 = getelementptr inbounds nuw %"struct.duckdb_libpgquery::PGTypeCast", ptr %21, i32 0, i32 4
  store i32 %20, ptr %22, align 4, !tbaa !789
  %23 = load ptr, ptr %9, align 8, !tbaa !783
  call void @llvm.lifetime.end.p0(i64 8, ptr %9) #13
  ret ptr %23
}

; Function Attrs: mustprogress uwtable
define hidden noundef ptr @_ZN17duckdb_libpgquery14SystemTypeNameEPKc(ptr noundef %0) #0 {
  %2 = alloca ptr, align 8
  store ptr %0, ptr %2, align 8, !tbaa !470
  %3 = load ptr, ptr %2, align 8, !tbaa !470
  %4 = call noundef ptr @_ZN17duckdb_libpgquery10makeStringEPKc(ptr noundef %3)
  %5 = call noundef ptr @_ZN17duckdb_libpgquery5lconsEPvPNS_6PGListE(ptr noundef %4, ptr noundef null)
  %6 = call noundef ptr @_ZN17duckdb_libpgquery24makeTypeNameFromNameListEPNS_6PGListE(ptr noundef %5)
  ret ptr %6
}

; Function Attrs: mustprogress uwtable
define internal noundef ptr @_ZN17duckdb_libpgqueryL14makeBoolAConstEbi(i1 noundef zeroext %0, i32 noundef %1) #0 {
  %3 = alloca i8, align 1
  %4 = alloca i32, align 4
  %5 = alloca ptr, align 8
  %6 = zext i1 %0 to i8
  store i8 %6, ptr %3, align 1, !tbaa !734
  store i32 %1, ptr %4, align 4, !tbaa !7
  call void @llvm.lifetime.start.p0(i64 8, ptr %5) #13
  %7 = call noundef ptr @_ZN17duckdb_libpgquery7newNodeEmNS_9PGNodeTagE(i64 noundef 32, i32 noundef 355)
  store ptr %7, ptr %5, align 8, !tbaa !661
  %8 = load ptr, ptr %5, align 8, !tbaa !661
  %9 = getelementptr inbounds nuw %"struct.duckdb_libpgquery::PGAConst", ptr %8, i32 0, i32 1
  %10 = getelementptr inbounds nuw %"struct.duckdb_libpgquery::PGValue", ptr %9, i32 0, i32 0
  store i32 218, ptr %10, align 8, !tbaa !742
  %11 = load i8, ptr %3, align 1, !tbaa !734, !range !211, !noundef !212
  %12 = trunc i8 %11 to i1
  %13 = select i1 %12, ptr @.str.172, ptr @.str.173
  %14 = load ptr, ptr %5, align 8, !tbaa !661
  %15 = getelementptr inbounds nuw %"struct.duckdb_libpgquery::PGAConst", ptr %14, i32 0, i32 1
  %16 = getelementptr inbounds nuw %"struct.duckdb_libpgquery::PGValue", ptr %15, i32 0, i32 1
  store ptr %13, ptr %16, align 8, !tbaa !22
  %17 = load i32, ptr %4, align 4, !tbaa !7
  %18 = load ptr, ptr %5, align 8, !tbaa !661
  %19 = getelementptr inbounds nuw %"struct.duckdb_libpgquery::PGAConst", ptr %18, i32 0, i32 2
  store i32 %17, ptr %19, align 8, !tbaa !745
  %20 = load ptr, ptr %5, align 8, !tbaa !661
  %21 = call noundef ptr @_ZN17duckdb_libpgquery14SystemTypeNameEPKc(ptr noundef @.str.62)
  %22 = call noundef ptr @_ZN17duckdb_libpgqueryL12makeTypeCastEPNS_6PGNodeEPNS_10PGTypeNameEii(ptr noundef %20, ptr noundef %21, i32 noundef 0, i32 noundef -1)
  call void @llvm.lifetime.end.p0(i64 8, ptr %5) #13
  ret ptr %22
}