; Function Attrs: mustprogress uwtable
define internal fastcc noundef ptr @_ZN17duckdb_libpgqueryL14makeBoolAConstEbi(i1 noundef zeroext %0, i32 noundef %1) unnamed_addr #0 {
  %3 = tail call noundef ptr @_ZN17duckdb_libpgquery7newNodeEmNS_9PGNodeTagE(i64 noundef 32, i32 noundef 355)
  %4 = getelementptr inbounds nuw i8, ptr %3, i64 8
  store i32 218, ptr %4, align 8, !tbaa !146
  %5 = select i1 %0, ptr @.str.172, ptr @.str.173
  %6 = getelementptr inbounds nuw i8, ptr %3, i64 16
  store ptr %5, ptr %6, align 8, !tbaa !9
  %7 = getelementptr inbounds nuw i8, ptr %3, i64 24
  store i32 %1, ptr %7, align 8, !tbaa !149
  %8 = tail call noundef ptr @_ZN17duckdb_libpgquery10makeStringEPKc(ptr noundef nonnull @.str.62)
  %9 = tail call noundef ptr @_ZN17duckdb_libpgquery5lconsEPvPNS_6PGListE(ptr noundef %8, ptr noundef null)
  %10 = tail call noundef ptr @_ZN17duckdb_libpgquery24makeTypeNameFromNameListEPNS_6PGListE(ptr noundef %9)
  %11 = tail call noundef ptr @_ZN17duckdb_libpgquery7newNodeEmNS_9PGNodeTagE(i64 noundef 32, i32 noundef 363)
  %12 = getelementptr inbounds nuw i8, ptr %11, i64 8
  store ptr %3, ptr %12, align 8, !tbaa !396
  %13 = getelementptr inbounds nuw i8, ptr %11, i64 16
  store ptr %10, ptr %13, align 8, !tbaa !398
  %14 = getelementptr inbounds nuw i8, ptr %11, i64 24
  store i32 0, ptr %14, align 8, !tbaa !399
  %15 = getelementptr inbounds nuw i8, ptr %11, i64 28
  store i32 -1, ptr %15, align 4, !tbaa !400
  ret ptr %11
}